target datalayout = "e-m:e-p270:32:32-p271:32:32-p272:64:64-i64:64-i128:128-f80:128-n8:16:32:64-S128"
target triple = "x86_64-pc-linux-gnu"

; Function Attrs: mustprogress nounwind uwtable
define dso_local noundef i32 @_ZNK5clang10TargetInfo22getOpenCLTypeAddrSpaceENS_14OpenCLTypeKindE(ptr noundef nonnull align 8 dereferenceable(489) %0, i8 noundef zeroext %1) unnamed_addr #0 align 2 {
  %3 = alloca i32, align 4
  %4 = alloca ptr, align 8
  %5 = alloca i8, align 1
  store ptr %0, ptr %4, align 8
  store i8 %1, ptr %5, align 1
  %6 = load i8, ptr %5, align 1
  %7 = zext i8 %6 to i32
  switch i32 %7, label %10 [
    i32 3, label %8
    i32 4, label %8
    i32 7, label %9
  ]

8:                                                ; preds = %2, %2
  store i32 1, ptr %3, align 4
  br label %11

9:                                                ; preds = %2
  store i32 3, ptr %3, align 4
  br label %11

10:                                               ; preds = %2
  store i32 0, ptr %3, align 4
  br label %11

11:                                               ; preds = %10, %9, %8
  %12 = load i32, ptr %3, align 4
  ret i32 %12
}