; Function Attrs: mustprogress nofree norecurse nosync nounwind willreturn memory(none) uwtable
define dso_local noundef range(i32 0, 4) i32 @_ZNK5clang10TargetInfo22getOpenCLTypeAddrSpaceENS_14OpenCLTypeKindE(ptr nonnull readnone align 8 captures(none) %0, i8 noundef zeroext %1) unnamed_addr #7 align 2 {
  %switch.tableidx = add i8 %1, -3
  %3 = icmp ult i8 %switch.tableidx, 5
  br i1 %3, label %switch.lookup, label %5

switch.lookup:                                    ; preds = %2
  %4 = zext nneg i8 %switch.tableidx to i64
  %switch.gep = getelementptr inbounds nuw [5 x i32], ptr @switch.table._ZNK5clang10TargetInfo22getOpenCLTypeAddrSpaceENS_14OpenCLTypeKindE, i64 0, i64 %4
  %switch.load = load i32, ptr %switch.gep, align 4
  br label %5

5:                                                ; preds = %2, %switch.lookup
  %.0 = phi i32 [ %switch.load, %switch.lookup ], [ 0, %2 ]
  ret i32 %.0
}